Certificate:
    Data:
        Version: 3 (0x2)
        Serial Number: 1 (0x1)
    Signature Algorithm: sha256WithRSAEncryption
        Issuer: C=CN, ST=Some-State, O=fengiling, CN=fengiling.net
        Validity
            Not Before: Nov 15 07:11:50 2016 GMT
            Not After : Nov 15 07:11:50 2017 GMT
        Subject: C=CN, ST=Some-State, O=fengiling, CN=fengiling.net
        Subject Public Key Info:
            Public Key Algorithm: rsaEncryption
                Public-Key: (1024 bit)
                Modulus:
                    00:c9:89:7f:a3:b6:c7:de:40:59:ec:21:ba:4a:0c:
                    7a:95:a2:36:17:10:c8:37:61:fc:b6:dc:f7:af:6c:
                    28:f2:19:d2:35:6d:e0:07:e0:6f:64:76:6c:33:99:
                    86:3d:92:56:70:0d:1f:d7:35:dd:48:86:15:96:90:
                    47:fc:57:10:f0:d1:e7:fb:e9:75:06:73:7a:0f:aa:
                    c2:70:70:69:dc:18:4c:40:8d:56:b9:ae:cb:ed:36:
                    fd:e0:2f:70:9f:c8:32:26:ed:66:50:d0:bd:0b:91:
                    9e:9f:db:8a:f0:6e:46:68:3f:d3:df:a1:65:6c:c2:
                    34:45:e6:42:32:16:5a:18:e3
                Exponent: 65537 (0x10001)
        X509v3 extensions:
            X509v3 Basic Constraints: 
                CA:FALSE
            Netscape Comment: 
                OpenSSL Generated Certificate
            X509v3 Subject Key Identifier: 
                6C:B2:9F:8C:62:F1:EF:D1:81:92:4F:84:49:6E:0A:2D:5C:39:DF:90
            X509v3 Authority Key Identifier: 
                keyid:C1:06:A3:B5:10:64:B0:84:75:46:9E:BB:5A:B6:A7:9F:16:E8:37:25

    Signature Algorithm: sha256WithRSAEncryption
         59:91:2a:95:c8:65:ab:c8:ec:78:35:0e:43:1d:7d:ae:1a:07:
         6f:84:e7:99:65:44:03:ce:9b:c5:bd:96:d6:5f:bc:bb:f4:f1:
         2a:e0:b4:6c:da:d8:25:02:5d:85:46:a5:e7:0f:9a:8d:78:96:
         88:7c:93:54:66:84:cf:65:64:48:c9:fd:b9:c0:23:6b:10:ae:
         00:81:df:89:c1:63:96:13:a8:e5:43:c8:2b:6d:e6:40:bb:30:
         b2:f3:97:6a:a6:b6:3c:9b:b2:4f:d9:21:b9:2a:bb:fb:cb:e9:
         76:44:61:c4:ac:7c:1f:11:26:ae:e2:9a:51:c1:d8:92:a5:eb:
         8e:d3:3f:c8:6e:1d:9b:5b:86:c1:b6:c6:bf:cb:4a:74:8f:0d:
         44:71:45:6e:fe:3e:5f:75:0b:9d:a5:1e:42:ac:92:3a:93:80:
         5a:d5:8b:46:62:02:0f:de:22:db:88:34:b2:bf:09:2f:f3:03:
         a8:58:17:cd:c5:f4:19:f5:1d:9b:a6:31:23:72:c1:96:51:9d:
         9c:9d:53:f5:81:3e:05:af:19:fc:28:72:dc:9b:37:76:1f:f2:
         32:19:51:3c:34:ae:6d:57:9f:31:a1:a6:1f:17:ff:f6:71:24:
         11:da:d0:00:d2:cc:21:02:e0:71:7a:05:06:12:8d:60:a5:df:
         75:7a:74:5e
-----BEGIN CERTIFICATE-----
MIIDDjCCAfagAwIBAgIBATANBgkqhkiG9w0BAQsFADBOMQswCQYDVQQGEwJDTjET
MBEGA1UECAwKU29tZS1TdGF0ZTESMBAGA1UECgwJZmVuZ2lsaW5nMRYwFAYDVQQD
DA1mZW5naWxpbmcubmV0MB4XDTE2MTExNTA3MTE1MFoXDTE3MTExNTA3MTE1MFow
TjELMAkGA1UEBhMCQ04xEzARBgNVBAgMClNvbWUtU3RhdGUxEjAQBgNVBAoMCWZl
bmdpbGluZzEWMBQGA1UEAwwNZmVuZ2lsaW5nLm5ldDCBnzANBgkqhkiG9w0BAQEF
AAOBjQAwgYkCgYEAyYl/o7bH3kBZ7CG6Sgx6laI2FxDIN2H8ttz3r2wo8hnSNW3g
B+BvZHZsM5mGPZJWcA0f1zXdSIYVlpBH/FcQ8NHn++l1BnN6D6rCcHBp3BhMQI1W
ua7L7Tb94C9wn8gyJu1mUNC9C5Gen9uK8G5GaD/T36FlbMI0ReZCMhZaGOMCAwEA
AaN7MHkwCQYDVR0TBAIwADAsBglghkgBhvhCAQ0EHxYdT3BlblNTTCBHZW5lcmF0
ZWQgQ2VydGlmaWNhdGUwHQYDVR0OBBYEFGyyn4xi8e/RgZJPhEluCi1cOd+QMB8G
A1UdIwQYMBaAFMEGo7UQZLCEdUaeu1q2p58W6DclMA0GCSqGSIb3DQEBCwUAA4IB
AQBZkSqVyGWryOx4NQ5DHX2uGgdvhOeZZUQDzpvFvZbWX7y79PEq4LRs2tglAl2F
RqXnD5qNeJaIfJNUZoTPZWRIyf25wCNrEK4Agd+JwWOWE6jlQ8grbeZAuzCy85dq
prY8m7JP2SG5Krv7y+l2RGHErHwfESau4ppRwdiSpeuO0z/Ibh2bW4bBtsa/y0p0
jw1EcUVu/j5fdQudpR5CrJI6k4Ba1YtGYgIP3iLbiDSyvwkv8wOoWBfNxfQZ9R2b
pjEjcsGWUZ2cnVP1gT4Frxn8KHLcmzd2H/IyGVE8NK5tV58xoaYfF//2cSQR2tAA
0swhAuBxegUGEo1gpd91enRe
-----END CERTIFICATE-----
-----BEGIN RSA PRIVATE KEY-----
Proc-Type: 4,ENCRYPTED
DEK-Info: DES-EDE3-CBC,32A45E3C9EE73A0F

oEntXCIxshdCam+wOYQCcxqJlzQN8hmMN8DB0BLZPQIYg9KbwMJ4onWneXBSHuZo
0msgUyETbxFHJnGNEccEbjhFDJ9W+xT2ymwFk2Ku0sPhMhAoGh9ZH93VTYxwd8Zy
f31NrPAaqYuf8ae9pA6GdEJwTsknuTSUxh5N2UYxCcYLLNdXc99yMI6VQnnyUmWN
9BPSMFHDgAkWhV6yWP2xXN/UlBA5TluGTGP1xkL/0RUORNeeh42wHCh4bq13JMsK
2//uUTDbFoPGNIQUCyynOk8lWdWMqueosMv8rNxi2r55bPTOex2SdR1FYo3J2evg
4SgAFhZes0Y+yKtEjfWycFuZiRaxmQX4JdRAdIkAbQxVrj1eOqht3wzDjDsyDUDC
koo3chLedjQEe0LvzfxV7+3UqfMb+ijBvM3bZwBx7yn9a0HG13JIZ2drF+Ax47bK
0JXrWHvSRxHhUIqw99CzyMa8KPXkbT4gdJ/zNzZvey5xiPcIeNumyY7fcR2rEGaC
A8rWm7gjbQtQh3GAH/sbtZxU7zg/ffdHMbbMfAYke68hCrlZaZB/NP+Ia8vyzuzj
BAce1TONFj2vJ5V+twoIbrJ1xd8TXGQyMn4NHfAC9HMKmzb3cxZfhpwBW3fx73MN
vweQe025L9FbKDjVTOh6XdCRuL8cYzhcGPvKhD9/BXkdvJe5YwoPD+zuKCln5bQ6
xtklqJ+OmOOXUEi5BBL2dBRtpUIj93IWFvhuD2hLkMrOf/+pNwczUS5LJ/v4y3Ak
wPVc8TNS9zrDqfqKy09c5Ghgj24xtXb7dh5oKsdDh5Zh/VKdt/MyZw==
-----END RSA PRIVATE KEY-----
